target datalayout = "e-m:e-p270:32:32-p271:32:32-p272:64:64-i64:64-i128:128-f80:128-n8:16:32:64-S128"
target triple = "x86_64-pc-linux-gnu"

%struct.Abc_Ntk_t_ = type { i32, i32, ptr, ptr, ptr, ptr, ptr, ptr, ptr, ptr, ptr, ptr, ptr, [11 x i32], i32, i32, i32, i32, ptr, i32, ptr, ptr, i32, i32, i32, double, i32, %struct.Vec_Int_t_, ptr, ptr, ptr, ptr, ptr, float, i32, ptr, ptr, ptr, ptr, ptr, ptr, ptr, ptr, ptr, ptr, ptr, ptr, ptr, ptr, ptr, ptr, ptr, ptr, ptr, ptr, ptr, ptr }
%struct.Vec_Int_t_ = type { i32, i32, ptr }
%struct.Abc_Obj_t_ = type { ptr, ptr, i32, i32, %struct.Vec_Int_t_, %struct.Vec_Int_t_, %union.anon, %union.anon.0 }
%union.anon = type { ptr }
%union.anon.0 = type { ptr }
%struct.Vec_Ptr_t_ = type { i32, i32, ptr }

@.str.2 = private unnamed_addr constant [9 x i8] c"%s_miter\00", align 1
@.str.4 = private unnamed_addr constant [45 x i8] c"Abc_NtkMiter: The network check has failed.\0A\00", align 1

; Function Attrs: inlinehint nounwind uwtable
define internal ptr @Vec_PtrEntry(ptr noundef %0, i32 noundef %1) #3 {
  %3 = alloca ptr, align 8
  %4 = alloca i32, align 4
  store ptr %0, ptr %3, align 8, !tbaa !31
  store i32 %1, ptr %4, align 4, !tbaa !8
  %5 = load ptr, ptr %3, align 8, !tbaa !31
  %6 = getelementptr inbounds nuw %struct.Vec_Ptr_t_, ptr %5, i32 0, i32 2
  %7 = load ptr, ptr %6, align 8, !tbaa !36
  %8 = load i32, ptr %4, align 4, !tbaa !8
  %9 = sext i32 %8 to i64
  %10 = getelementptr inbounds ptr, ptr %7, i64 %9
  %11 = load ptr, ptr %10, align 8, !tbaa !37
  ret ptr %11
}

; Function Attrs: inlinehint nounwind uwtable
define internal ptr @Abc_NtkPo(ptr noundef %0, i32 noundef %1) #3 {
  %3 = alloca ptr, align 8
  %4 = alloca i32, align 4
  store ptr %0, ptr %3, align 8, !tbaa !3
  store i32 %1, ptr %4, align 4, !tbaa !8
  %5 = load ptr, ptr %3, align 8, !tbaa !3
  %6 = getelementptr inbounds nuw %struct.Abc_Ntk_t_, ptr %5, i32 0, i32 7
  %7 = load ptr, ptr %6, align 8, !tbaa !47
  %8 = load i32, ptr %4, align 4, !tbaa !8
  %9 = call ptr @Vec_PtrEntry(ptr noundef %7, i32 noundef %8)
  ret ptr %9
}

; Function Attrs: inlinehint nounwind uwtable
define internal ptr @Abc_ObjFanin0(ptr noundef %0) #3 {
  %2 = alloca ptr, align 8
  store ptr %0, ptr %2, align 8, !tbaa !28
  %3 = load ptr, ptr %2, align 8, !tbaa !28
  %4 = getelementptr inbounds nuw %struct.Abc_Obj_t_, ptr %3, i32 0, i32 0
  %5 = load ptr, ptr %4, align 8, !tbaa !48
  %6 = getelementptr inbounds nuw %struct.Abc_Ntk_t_, ptr %5, i32 0, i32 5
  %7 = load ptr, ptr %6, align 8, !tbaa !45
  %8 = getelementptr inbounds nuw %struct.Vec_Ptr_t_, ptr %7, i32 0, i32 2
  %9 = load ptr, ptr %8, align 8, !tbaa !36
  %10 = load ptr, ptr %2, align 8, !tbaa !28
  %11 = getelementptr inbounds nuw %struct.Abc_Obj_t_, ptr %10, i32 0, i32 4
  %12 = getelementptr inbounds nuw %struct.Vec_Int_t_, ptr %11, i32 0, i32 2
  %13 = load ptr, ptr %12, align 8, !tbaa !50
  %14 = getelementptr inbounds i32, ptr %13, i64 0
  %15 = load i32, ptr %14, align 4, !tbaa !8
  %16 = sext i32 %15 to i64
  %17 = getelementptr inbounds ptr, ptr %9, i64 %16
  %18 = load ptr, ptr %17, align 8, !tbaa !37
  ret ptr %18
}

; Function Attrs: inlinehint nounwind uwtable
define internal ptr @Abc_NtkCi(ptr noundef %0, i32 noundef %1) #3 {
  %3 = alloca ptr, align 8
  %4 = alloca i32, align 4
  store ptr %0, ptr %3, align 8, !tbaa !3
  store i32 %1, ptr %4, align 4, !tbaa !8
  %5 = load ptr, ptr %3, align 8, !tbaa !3
  %6 = getelementptr inbounds nuw %struct.Abc_Ntk_t_, ptr %5, i32 0, i32 8
  %7 = load ptr, ptr %6, align 8, !tbaa !56
  %8 = load i32, ptr %4, align 4, !tbaa !8
  %9 = call ptr @Vec_PtrEntry(ptr noundef %7, i32 noundef %8)
  ret ptr %9
}

; Function Attrs: inlinehint nounwind uwtable
define internal ptr @Abc_ObjNot(ptr noundef %0) #3 {
  %2 = alloca ptr, align 8
  store ptr %0, ptr %2, align 8, !tbaa !28
  %3 = load ptr, ptr %2, align 8, !tbaa !28
  %4 = ptrtoint ptr %3 to i64
  %5 = xor i64 %4, 1
  %6 = inttoptr i64 %5 to ptr
  ret ptr %6
}

; Function Attrs: inlinehint nounwind uwtable
define internal ptr @Abc_NtkCo(ptr noundef %0, i32 noundef %1) #3 {
  %3 = alloca ptr, align 8
  %4 = alloca i32, align 4
  store ptr %0, ptr %3, align 8, !tbaa !3
  store i32 %1, ptr %4, align 4, !tbaa !8
  %5 = load ptr, ptr %3, align 8, !tbaa !3
  %6 = getelementptr inbounds nuw %struct.Abc_Ntk_t_, ptr %5, i32 0, i32 9
  %7 = load ptr, ptr %6, align 8, !tbaa !53
  %8 = load i32, ptr %4, align 4, !tbaa !8
  %9 = call ptr @Vec_PtrEntry(ptr noundef %7, i32 noundef %8)
  ret ptr %9
}

; Function Attrs: nounwind uwtable
define ptr @Abc_NtkMiterForCofactors(ptr noundef %0, i32 noundef %1, i32 noundef %2, i32 noundef %3) #0 {
  %5 = alloca ptr, align 8
  %6 = alloca ptr, align 8
  %7 = alloca i32, align 4
  %8 = alloca i32, align 4
  %9 = alloca i32, align 4
  %10 = alloca [1000 x i8], align 16
  %11 = alloca ptr, align 8
  %12 = alloca ptr, align 8
  %13 = alloca ptr, align 8
  %14 = alloca ptr, align 8
  %15 = alloca ptr, align 8
  %16 = alloca i32, align 4
  store ptr %0, ptr %6, align 8, !tbaa !3
  store i32 %1, ptr %7, align 4, !tbaa !8
  store i32 %2, ptr %8, align 4, !tbaa !8
  store i32 %3, ptr %9, align 4, !tbaa !8
  call void @llvm.lifetime.start.p0(i64 1000, ptr %10) #9
  call void @llvm.lifetime.start.p0(i64 8, ptr %11) #9
  call void @llvm.lifetime.start.p0(i64 8, ptr %12) #9
  call void @llvm.lifetime.start.p0(i64 8, ptr %13) #9
  call void @llvm.lifetime.start.p0(i64 8, ptr %14) #9
  call void @llvm.lifetime.start.p0(i64 8, ptr %15) #9
  %17 = call ptr @Abc_NtkAlloc(i32 noundef 3, i32 noundef 3, i32 noundef 1)
  store ptr %17, ptr %11, align 8, !tbaa !3
  %18 = getelementptr inbounds [1000 x i8], ptr %10, i64 0, i64 0
  %19 = load ptr, ptr %6, align 8, !tbaa !3
  %20 = load i32, ptr %7, align 4, !tbaa !8
  %21 = call ptr @Abc_NtkCo(ptr noundef %19, i32 noundef %20)
  %22 = call ptr @Abc_ObjName(ptr noundef %21)
  %23 = call i32 (ptr, ptr, ...) @sprintf(ptr noundef %18, ptr noundef @.str.2, ptr noundef %22) #9
  %24 = getelementptr inbounds [1000 x i8], ptr %10, i64 0, i64 0
  %25 = call ptr @Extra_UtilStrsav(ptr noundef %24)
  %26 = load ptr, ptr %11, align 8, !tbaa !3
  %27 = getelementptr inbounds nuw %struct.Abc_Ntk_t_, ptr %26, i32 0, i32 2
  store ptr %25, ptr %27, align 8, !tbaa !26
  %28 = load ptr, ptr %6, align 8, !tbaa !3
  %29 = load i32, ptr %7, align 4, !tbaa !8
  %30 = call ptr @Abc_NtkCo(ptr noundef %28, i32 noundef %29)
  store ptr %30, ptr %12, align 8, !tbaa !28
  %31 = load ptr, ptr %6, align 8, !tbaa !3
  %32 = load ptr, ptr %6, align 8, !tbaa !3
  %33 = load ptr, ptr %11, align 8, !tbaa !3
  call void @Abc_NtkMiterPrepare(ptr noundef %31, ptr noundef %32, ptr noundef %33, i32 noundef 1, i32 noundef -1, i32 noundef 0)
  %34 = load ptr, ptr %11, align 8, !tbaa !3
  %35 = call ptr @Abc_AigConst1(ptr noundef %34)
  %36 = call ptr @Abc_ObjNot(ptr noundef %35)
  %37 = load ptr, ptr %6, align 8, !tbaa !3
  %38 = load i32, ptr %8, align 4, !tbaa !8
  %39 = call ptr @Abc_NtkCi(ptr noundef %37, i32 noundef %38)
  %40 = getelementptr inbounds nuw %struct.Abc_Obj_t_, ptr %39, i32 0, i32 7
  store ptr %36, ptr %40, align 8, !tbaa !30
  %41 = load i32, ptr %9, align 4, !tbaa !8
  %42 = icmp sge i32 %41, 0
  br i1 %42, label %43, label %50

43:                                               ; preds = %4
  %44 = load ptr, ptr %11, align 8, !tbaa !3
  %45 = call ptr @Abc_AigConst1(ptr noundef %44)
  %46 = load ptr, ptr %6, align 8, !tbaa !3
  %47 = load i32, ptr %9, align 4, !tbaa !8
  %48 = call ptr @Abc_NtkCi(ptr noundef %46, i32 noundef %47)
  %49 = getelementptr inbounds nuw %struct.Abc_Obj_t_, ptr %48, i32 0, i32 7
  store ptr %45, ptr %49, align 8, !tbaa !30
  br label %50

50:                                               ; preds = %43, %4
  %51 = load ptr, ptr %6, align 8, !tbaa !3
  %52 = load ptr, ptr %11, align 8, !tbaa !3
  %53 = load ptr, ptr %12, align 8, !tbaa !28
  call void @Abc_NtkMiterAddCone(ptr noundef %51, ptr noundef %52, ptr noundef %53)
  %54 = load ptr, ptr %12, align 8, !tbaa !28
  %55 = call ptr @Abc_ObjFanin0(ptr noundef %54)
  %56 = getelementptr inbounds nuw %struct.Abc_Obj_t_, ptr %55, i32 0, i32 7
  %57 = load ptr, ptr %56, align 8, !tbaa !30
  store ptr %57, ptr %13, align 8, !tbaa !28
  %58 = load ptr, ptr %11, align 8, !tbaa !3
  %59 = call ptr @Abc_AigConst1(ptr noundef %58)
  %60 = load ptr, ptr %6, align 8, !tbaa !3
  %61 = load i32, ptr %8, align 4, !tbaa !8
  %62 = call ptr @Abc_NtkCi(ptr noundef %60, i32 noundef %61)
  %63 = getelementptr inbounds nuw %struct.Abc_Obj_t_, ptr %62, i32 0, i32 7
  store ptr %59, ptr %63, align 8, !tbaa !30
  %64 = load i32, ptr %9, align 4, !tbaa !8
  %65 = icmp sge i32 %64, 0
  br i1 %65, label %66, label %74

66:                                               ; preds = %50
  %67 = load ptr, ptr %11, align 8, !tbaa !3
  %68 = call ptr @Abc_AigConst1(ptr noundef %67)
  %69 = call ptr @Abc_ObjNot(ptr noundef %68)
  %70 = load ptr, ptr %6, align 8, !tbaa !3
  %71 = load i32, ptr %9, align 4, !tbaa !8
  %72 = call ptr @Abc_NtkCi(ptr noundef %70, i32 noundef %71)
  %73 = getelementptr inbounds nuw %struct.Abc_Obj_t_, ptr %72, i32 0, i32 7
  store ptr %69, ptr %73, align 8, !tbaa !30
  br label %74

74:                                               ; preds = %66, %50
  %75 = load ptr, ptr %6, align 8, !tbaa !3
  %76 = load ptr, ptr %11, align 8, !tbaa !3
  %77 = load ptr, ptr %12, align 8, !tbaa !28
  call void @Abc_NtkMiterAddCone(ptr noundef %75, ptr noundef %76, ptr noundef %77)
  %78 = load ptr, ptr %12, align 8, !tbaa !28
  %79 = call ptr @Abc_ObjFanin0(ptr noundef %78)
  %80 = getelementptr inbounds nuw %struct.Abc_Obj_t_, ptr %79, i32 0, i32 7
  %81 = load ptr, ptr %80, align 8, !tbaa !30
  store ptr %81, ptr %14, align 8, !tbaa !28
  %82 = load ptr, ptr %11, align 8, !tbaa !3
  %83 = getelementptr inbounds nuw %struct.Abc_Ntk_t_, ptr %82, i32 0, i32 30
  %84 = load ptr, ptr %83, align 8, !tbaa !27
  %85 = load ptr, ptr %13, align 8, !tbaa !28
  %86 = load ptr, ptr %14, align 8, !tbaa !28
  %87 = call ptr @Abc_AigXor(ptr noundef %84, ptr noundef %85, ptr noundef %86)
  store ptr %87, ptr %15, align 8, !tbaa !28
  %88 = load ptr, ptr %11, align 8, !tbaa !3
  %89 = call ptr @Abc_NtkPo(ptr noundef %88, i32 noundef 0)
  %90 = load ptr, ptr %15, align 8, !tbaa !28
  call void @Abc_ObjAddFanin(ptr noundef %89, ptr noundef %90)
  %91 = load ptr, ptr %11, align 8, !tbaa !3
  %92 = call i32 @Abc_NtkCheck(ptr noundef %91)
  %93 = icmp ne i32 %92, 0
  br i1 %93, label %97, label %94

94:                                               ; preds = %74
  %95 = call i32 (ptr, ...) @printf(ptr noundef @.str.4)
  %96 = load ptr, ptr %11, align 8, !tbaa !3
  call void @Abc_NtkDelete(ptr noundef %96)
  store ptr null, ptr %5, align 8
  store i32 1, ptr %16, align 4
  br label %99

97:                                               ; preds = %74
  %98 = load ptr, ptr %11, align 8, !tbaa !3
  store ptr %98, ptr %5, align 8
  store i32 1, ptr %16, align 4
  br label %99

99:                                               ; preds = %97, %94
  call void @llvm.lifetime.end.p0(i64 8, ptr %15) #9
  call void @llvm.lifetime.end.p0(i64 8, ptr %14) #9
  call void @llvm.lifetime.end.p0(i64 8, ptr %13) #9
  call void @llvm.lifetime.end.p0(i64 8, ptr %12) #9
  call void @llvm.lifetime.end.p0(i64 8, ptr %11) #9
  call void @llvm.lifetime.end.p0(i64 1000, ptr %10) #9
  %100 = load ptr, ptr %5, align 8
  ret ptr %100
}