; Function Attrs: nounwind uwtable
define ptr @Abc_NtkMiterForCofactors(ptr noundef %0, i32 noundef %1, i32 noundef %2, i32 noundef %3) local_unnamed_addr #0 {
  %5 = alloca [1000 x i8], align 16
  call void @llvm.lifetime.start.p0(i64 1000, ptr nonnull %5) #16
  %6 = tail call ptr @Abc_NtkAlloc(i32 noundef 3, i32 noundef 3, i32 noundef 1) #16
  %7 = getelementptr i8, ptr %0, i64 64
  %.val43 = load ptr, ptr %7, align 8, !tbaa !41
  %8 = getelementptr i8, ptr %.val43, i64 8
  %.val43.val = load ptr, ptr %8, align 8, !tbaa !28
  %9 = sext i32 %1 to i64
  %10 = getelementptr inbounds ptr, ptr %.val43.val, i64 %9
  %11 = load ptr, ptr %10, align 8, !tbaa !29
  %12 = tail call ptr @Abc_ObjName(ptr noundef %11) #16
  %13 = call i32 (ptr, ptr, ...) @sprintf(ptr noundef nonnull dereferenceable(1) %5, ptr noundef nonnull dereferenceable(1) @.str.2, ptr noundef %12) #16
  %14 = call ptr @Extra_UtilStrsav(ptr noundef nonnull %5) #16
  %15 = getelementptr inbounds nuw i8, ptr %6, i64 8
  store ptr %14, ptr %15, align 8, !tbaa !24
  %.val42 = load ptr, ptr %7, align 8, !tbaa !41
  %16 = getelementptr i8, ptr %.val42, i64 8
  %.val42.val = load ptr, ptr %16, align 8, !tbaa !28
  %17 = getelementptr inbounds ptr, ptr %.val42.val, i64 %9
  %18 = load ptr, ptr %17, align 8, !tbaa !29
  call fastcc void @Abc_NtkMiterPrepare(ptr noundef %0, ptr noundef %0, ptr noundef %6, i32 noundef 1, i32 noundef -1, i32 noundef 0)
  %19 = call ptr @Abc_AigConst1(ptr noundef %6) #16
  %20 = ptrtoint ptr %19 to i64
  %21 = xor i64 %20, 1
  %22 = inttoptr i64 %21 to ptr
  %23 = getelementptr i8, ptr %0, i64 56
  %.val41 = load ptr, ptr %23, align 8, !tbaa !52
  %24 = getelementptr i8, ptr %.val41, i64 8
  %.val41.val = load ptr, ptr %24, align 8, !tbaa !28
  %25 = sext i32 %2 to i64
  %26 = getelementptr inbounds ptr, ptr %.val41.val, i64 %25
  %27 = load ptr, ptr %26, align 8, !tbaa !29
  %28 = getelementptr inbounds nuw i8, ptr %27, i64 64
  store ptr %22, ptr %28, align 8, !tbaa !37
  %29 = icmp sgt i32 %3, -1
  br i1 %29, label %30, label %37

30:                                               ; preds = %4
  %31 = call ptr @Abc_AigConst1(ptr noundef nonnull %6) #16
  %.val40 = load ptr, ptr %23, align 8, !tbaa !52
  %32 = getelementptr i8, ptr %.val40, i64 8
  %.val40.val = load ptr, ptr %32, align 8, !tbaa !28
  %33 = zext nneg i32 %3 to i64
  %34 = getelementptr inbounds nuw ptr, ptr %.val40.val, i64 %33
  %35 = load ptr, ptr %34, align 8, !tbaa !29
  %36 = getelementptr inbounds nuw i8, ptr %35, i64 64
  store ptr %31, ptr %36, align 8, !tbaa !37
  br label %37

37:                                               ; preds = %30, %4
  call void @Abc_NtkMiterAddCone(ptr noundef nonnull %0, ptr noundef nonnull %6, ptr noundef %18)
  %.val47 = load ptr, ptr %18, align 8, !tbaa !34
  %38 = getelementptr i8, ptr %18, i64 32
  %.val48 = load ptr, ptr %38, align 8, !tbaa !35
  %39 = getelementptr i8, ptr %.val47, i64 32
  %.val47.val = load ptr, ptr %39, align 8, !tbaa !25
  %.val48.val = load i32, ptr %.val48, align 4, !tbaa !36
  %40 = getelementptr i8, ptr %.val47.val, i64 8
  %.val47.val.val = load ptr, ptr %40, align 8, !tbaa !28
  %41 = sext i32 %.val48.val to i64
  %42 = getelementptr inbounds ptr, ptr %.val47.val.val, i64 %41
  %43 = load ptr, ptr %42, align 8, !tbaa !29
  %44 = getelementptr inbounds nuw i8, ptr %43, i64 64
  %45 = load ptr, ptr %44, align 8, !tbaa !37
  %46 = call ptr @Abc_AigConst1(ptr noundef nonnull %6) #16
  %.val39 = load ptr, ptr %23, align 8, !tbaa !52
  %47 = getelementptr i8, ptr %.val39, i64 8
  %.val39.val = load ptr, ptr %47, align 8, !tbaa !28
  %48 = getelementptr inbounds ptr, ptr %.val39.val, i64 %25
  %49 = load ptr, ptr %48, align 8, !tbaa !29
  %50 = getelementptr inbounds nuw i8, ptr %49, i64 64
  store ptr %46, ptr %50, align 8, !tbaa !37
  br i1 %29, label %51, label %61

51:                                               ; preds = %37
  %52 = call ptr @Abc_AigConst1(ptr noundef nonnull %6) #16
  %53 = ptrtoint ptr %52 to i64
  %54 = xor i64 %53, 1
  %55 = inttoptr i64 %54 to ptr
  %.val = load ptr, ptr %23, align 8, !tbaa !52
  %56 = getelementptr i8, ptr %.val, i64 8
  %.val.val = load ptr, ptr %56, align 8, !tbaa !28
  %57 = zext nneg i32 %3 to i64
  %58 = getelementptr inbounds nuw ptr, ptr %.val.val, i64 %57
  %59 = load ptr, ptr %58, align 8, !tbaa !29
  %60 = getelementptr inbounds nuw i8, ptr %59, i64 64
  store ptr %55, ptr %60, align 8, !tbaa !37
  br label %61

61:                                               ; preds = %51, %37
  call void @Abc_NtkMiterAddCone(ptr noundef nonnull %0, ptr noundef nonnull %6, ptr noundef nonnull %18)
  %.val45 = load ptr, ptr %18, align 8, !tbaa !34
  %.val46 = load ptr, ptr %38, align 8, !tbaa !35
  %62 = getelementptr i8, ptr %.val45, i64 32
  %.val45.val = load ptr, ptr %62, align 8, !tbaa !25
  %.val46.val = load i32, ptr %.val46, align 4, !tbaa !36
  %63 = getelementptr i8, ptr %.val45.val, i64 8
  %.val45.val.val = load ptr, ptr %63, align 8, !tbaa !28
  %64 = sext i32 %.val46.val to i64
  %65 = getelementptr inbounds ptr, ptr %.val45.val.val, i64 %64
  %66 = load ptr, ptr %65, align 8, !tbaa !29
  %67 = getelementptr inbounds nuw i8, ptr %66, i64 64
  %68 = load ptr, ptr %67, align 8, !tbaa !37
  %69 = getelementptr inbounds nuw i8, ptr %6, i64 256
  %70 = load ptr, ptr %69, align 8, !tbaa !33
  %71 = call ptr @Abc_AigXor(ptr noundef %70, ptr noundef %45, ptr noundef %68) #16
  %72 = getelementptr i8, ptr %6, i64 48
  %.val44 = load ptr, ptr %72, align 8, !tbaa !43
  %73 = getelementptr i8, ptr %.val44, i64 8
  %.val44.val = load ptr, ptr %73, align 8, !tbaa !28
  %74 = load ptr, ptr %.val44.val, align 8, !tbaa !29
  call void @Abc_ObjAddFanin(ptr noundef %74, ptr noundef %71) #16
  %75 = call i32 @Abc_NtkCheck(ptr noundef nonnull %6) #16
  %.not = icmp eq i32 %75, 0
  br i1 %.not, label %76, label %77

76:                                               ; preds = %61
  %puts = call i32 @puts(ptr nonnull dereferenceable(1) @str.4)
  call void @Abc_NtkDelete(ptr noundef nonnull %6) #16
  br label %77

77:                                               ; preds = %61, %76
  %.0 = phi ptr [ null, %76 ], [ %6, %61 ]
  call void @llvm.lifetime.end.p0(i64 1000, ptr nonnull %5) #16
  ret ptr %.0
}